target datalayout = "e-m:e-p270:32:32-p271:32:32-p272:64:64-i64:64-i128:128-f80:128-n8:16:32:64-S128"
target triple = "x86_64-pc-linux-gnu"

%"class.std::__cxx11::basic_string" = type { %"struct.std::__cxx11::basic_string<char>::_Alloc_hider", i64, %union.anon }
%"struct.std::__cxx11::basic_string<char>::_Alloc_hider" = type { ptr }
%union.anon = type { i64, [8 x i8] }
%"class.std::__cxx11::basic_stringstream" = type { %"class.std::basic_iostream.base", %"class.std::__cxx11::basic_stringbuf", %"class.std::basic_ios" }
%"class.std::basic_iostream.base" = type { %"class.std::basic_istream.base", %"class.std::basic_ostream.base" }
%"class.std::basic_istream.base" = type { ptr, i64 }
%"class.std::basic_ostream.base" = type { ptr }
%"class.std::__cxx11::basic_stringbuf" = type { %"class.std::basic_streambuf", i32, %"class.std::__cxx11::basic_string" }
%"class.std::basic_streambuf" = type { ptr, ptr, ptr, ptr, ptr, ptr, ptr, %"class.std::locale" }
%"class.std::locale" = type { ptr }
%"class.std::basic_ios" = type { %"class.std::ios_base", ptr, i8, i8, ptr, ptr, ptr, ptr }
%"class.std::ios_base" = type { ptr, i64, i64, i32, i32, i32, ptr, %"struct.std::ios_base::_Words", [8 x %"struct.std::ios_base::_Words"], i32, ptr, %"class.std::locale" }
%"struct.std::ios_base::_Words" = type { ptr, i64 }

@.str.2 = private unnamed_addr constant [3 x i8] c"0x\00", align 1

; Function Attrs: mustprogress nounwind uwtable
define linkonce_odr dso_local noundef i32 @_ZStorSt13_Ios_OpenmodeS_(i32 noundef %0, i32 noundef %1) #4 comdat {
  %3 = alloca i32, align 4
  %4 = alloca i32, align 4
  store i32 %0, ptr %3, align 4
  store i32 %1, ptr %4, align 4
  %5 = load i32, ptr %3, align 4
  %6 = load i32, ptr %4, align 4
  %7 = or i32 %5, %6
  ret i32 %7
}

; Function Attrs: mustprogress uwtable
define dso_local noundef i64 @_ZN11StringUtils12str2longlongERKNSt7__cxx1112basic_stringIcSt11char_traitsIcESaIcEEE(ptr noundef nonnull align 8 dereferenceable(32) %0) #5 align 2 personality ptr @__gxx_personality_v0 {
  %2 = alloca ptr, align 8
  %3 = alloca i64, align 8
  %4 = alloca i64, align 8
  %5 = alloca i32, align 4
  %6 = alloca %"class.std::__cxx11::basic_stringstream", align 8
  %7 = alloca ptr, align 8
  %8 = alloca i32, align 4
  store ptr %0, ptr %2, align 8
  store i64 0, ptr %3, align 8
  %9 = load ptr, ptr %2, align 8
  %10 = call noundef i64 @_ZNKSt7__cxx1112basic_stringIcSt11char_traitsIcESaIcEE4findEPKcm(ptr noundef nonnull align 8 dereferenceable(32) %9, ptr noundef @.str.2, i64 noundef 0) #3
  %11 = icmp eq i64 %10, 0
  br i1 %11, label %12, label %73

12:                                               ; preds = %1
  store i64 2, ptr %4, align 8
  br label %13

13:                                               ; preds = %69, %12
  %14 = load i64, ptr %4, align 8
  %15 = load ptr, ptr %2, align 8
  %16 = call noundef i64 @_ZNKSt7__cxx1112basic_stringIcSt11char_traitsIcESaIcEE6lengthEv(ptr noundef nonnull align 8 dereferenceable(32) %15) #3
  %17 = icmp ult i64 %14, %16
  br i1 %17, label %18, label %72

18:                                               ; preds = %13
  store i32 0, ptr %5, align 4
  %19 = load ptr, ptr %2, align 8
  %20 = load i64, ptr %4, align 8
  %21 = call noundef nonnull align 1 dereferenceable(1) ptr @_ZNKSt7__cxx1112basic_stringIcSt11char_traitsIcESaIcEEixEm(ptr noundef nonnull align 8 dereferenceable(32) %19, i64 noundef %20) #3
  %22 = load i8, ptr %21, align 1
  %23 = sext i8 %22 to i32
  %24 = icmp sge i32 %23, 48
  br i1 %24, label %25, label %39

25:                                               ; preds = %18
  %26 = load ptr, ptr %2, align 8
  %27 = load i64, ptr %4, align 8
  %28 = call noundef nonnull align 1 dereferenceable(1) ptr @_ZNKSt7__cxx1112basic_stringIcSt11char_traitsIcESaIcEEixEm(ptr noundef nonnull align 8 dereferenceable(32) %26, i64 noundef %27) #3
  %29 = load i8, ptr %28, align 1
  %30 = sext i8 %29 to i32
  %31 = icmp sle i32 %30, 57
  br i1 %31, label %32, label %39

32:                                               ; preds = %25
  %33 = load ptr, ptr %2, align 8
  %34 = load i64, ptr %4, align 8
  %35 = call noundef nonnull align 1 dereferenceable(1) ptr @_ZNKSt7__cxx1112basic_stringIcSt11char_traitsIcESaIcEEixEm(ptr noundef nonnull align 8 dereferenceable(32) %33, i64 noundef %34) #3
  %36 = load i8, ptr %35, align 1
  %37 = sext i8 %36 to i32
  %38 = sub nsw i32 %37, 48
  store i32 %38, ptr %5, align 4
  br label %63

39:                                               ; preds = %25, %18
  %40 = load ptr, ptr %2, align 8
  %41 = load i64, ptr %4, align 8
  %42 = call noundef nonnull align 1 dereferenceable(1) ptr @_ZNKSt7__cxx1112basic_stringIcSt11char_traitsIcESaIcEEixEm(ptr noundef nonnull align 8 dereferenceable(32) %40, i64 noundef %41) #3
  %43 = load i8, ptr %42, align 1
  %44 = sext i8 %43 to i32
  %45 = icmp sge i32 %44, 65
  br i1 %45, label %46, label %61

46:                                               ; preds = %39
  %47 = load ptr, ptr %2, align 8
  %48 = load i64, ptr %4, align 8
  %49 = call noundef nonnull align 1 dereferenceable(1) ptr @_ZNKSt7__cxx1112basic_stringIcSt11char_traitsIcESaIcEEixEm(ptr noundef nonnull align 8 dereferenceable(32) %47, i64 noundef %48) #3
  %50 = load i8, ptr %49, align 1
  %51 = sext i8 %50 to i32
  %52 = icmp sle i32 %51, 70
  br i1 %52, label %53, label %61

53:                                               ; preds = %46
  %54 = load ptr, ptr %2, align 8
  %55 = load i64, ptr %4, align 8
  %56 = call noundef nonnull align 1 dereferenceable(1) ptr @_ZNKSt7__cxx1112basic_stringIcSt11char_traitsIcESaIcEEixEm(ptr noundef nonnull align 8 dereferenceable(32) %54, i64 noundef %55) #3
  %57 = load i8, ptr %56, align 1
  %58 = sext i8 %57 to i32
  %59 = add nsw i32 10, %58
  %60 = sub nsw i32 %59, 65
  store i32 %60, ptr %5, align 4
  br label %62

61:                                               ; preds = %46, %39
  br label %72

62:                                               ; preds = %53
  br label %63

63:                                               ; preds = %62, %32
  %64 = load i64, ptr %3, align 8
  %65 = mul nsw i64 %64, 16
  %66 = load i32, ptr %5, align 4
  %67 = sext i32 %66 to i64
  %68 = add nsw i64 %65, %67
  store i64 %68, ptr %3, align 8
  br label %69

69:                                               ; preds = %63
  %70 = load i64, ptr %4, align 8
  %71 = add i64 %70, 1
  store i64 %71, ptr %4, align 8
  br label %13, !llvm.loop !11

72:                                               ; preds = %61, %13
  br label %82

73:                                               ; preds = %1
  %74 = load ptr, ptr %2, align 8
  %75 = call noundef i32 @_ZStorSt13_Ios_OpenmodeS_(i32 noundef 16, i32 noundef 8)
  call void @_ZNSt7__cxx1118basic_stringstreamIcSt11char_traitsIcESaIcEEC1ERKNS_12basic_stringIcS2_S3_EESt13_Ios_Openmode(ptr noundef nonnull align 8 dereferenceable(128) %6, ptr noundef nonnull align 8 dereferenceable(32) %74, i32 noundef %75)
  %76 = invoke noundef nonnull align 8 dereferenceable(16) ptr @_ZNSirsERx(ptr noundef nonnull align 8 dereferenceable(16) %6, ptr noundef nonnull align 8 dereferenceable(8) %3)
          to label %77 unwind label %78

77:                                               ; preds = %73
  call void @_ZNSt7__cxx1118basic_stringstreamIcSt11char_traitsIcESaIcEED1Ev(ptr noundef nonnull align 8 dereferenceable(128) %6) #3
  br label %82

78:                                               ; preds = %73
  %79 = landingpad { ptr, i32 }
          cleanup
  %80 = extractvalue { ptr, i32 } %79, 0
  store ptr %80, ptr %7, align 8
  %81 = extractvalue { ptr, i32 } %79, 1
  store i32 %81, ptr %8, align 4
  call void @_ZNSt7__cxx1118basic_stringstreamIcSt11char_traitsIcESaIcEED1Ev(ptr noundef nonnull align 8 dereferenceable(128) %6) #3
  br label %84

82:                                               ; preds = %77, %72
  %83 = load i64, ptr %3, align 8
  ret i64 %83

84:                                               ; preds = %78
  %85 = load ptr, ptr %7, align 8
  %86 = load i32, ptr %8, align 4
  %87 = insertvalue { ptr, i32 } poison, ptr %85, 0
  %88 = insertvalue { ptr, i32 } %87, i32 %86, 1
  resume { ptr, i32 } %88
}