; Function Attrs: mustprogress uwtable
define dso_local noundef i64 @_ZN11StringUtils12str2longlongERKNSt7__cxx1112basic_stringIcSt11char_traitsIcESaIcEEE(ptr noundef nonnull align 8 dereferenceable(32) %0) local_unnamed_addr #5 align 2 personality ptr @__gxx_personality_v0 {
  %2 = alloca i64, align 8
  %3 = alloca %"class.std::__cxx11::basic_stringstream", align 8
  store i64 0, ptr %2, align 8
  %4 = tail call noundef i64 @_ZNKSt7__cxx1112basic_stringIcSt11char_traitsIcESaIcEE4findEPKcm(ptr noundef nonnull align 8 dereferenceable(32) %0, ptr noundef nonnull @.str.2, i64 noundef 0) #18
  %5 = icmp eq i64 %4, 0
  br i1 %5, label %.preheader, label %34

.preheader:                                       ; preds = %1
  %6 = tail call noundef i64 @_ZNKSt7__cxx1112basic_stringIcSt11char_traitsIcESaIcEE6lengthEv(ptr noundef nonnull align 8 dereferenceable(32) %0) #18
  %7 = icmp ugt i64 %6, 2
  br i1 %7, label %.lr.ph, label %.loopexit

.lr.ph:                                           ; preds = %.preheader, %24
  %.020 = phi i64 [ %31, %24 ], [ 2, %.preheader ]
  %8 = phi i64 [ %30, %24 ], [ 0, %.preheader ]
  %9 = tail call noundef nonnull align 1 dereferenceable(1) ptr @_ZNKSt7__cxx1112basic_stringIcSt11char_traitsIcESaIcEEixEm(ptr noundef nonnull align 8 dereferenceable(32) %0, i64 noundef %.020) #18
  %10 = load i8, ptr %9, align 1
  %11 = icmp sgt i8 %10, 47
  br i1 %11, label %12, label %16

12:                                               ; preds = %.lr.ph
  %13 = tail call noundef nonnull align 1 dereferenceable(1) ptr @_ZNKSt7__cxx1112basic_stringIcSt11char_traitsIcESaIcEEixEm(ptr noundef nonnull align 8 dereferenceable(32) %0, i64 noundef %.020) #18
  %14 = load i8, ptr %13, align 1
  %15 = icmp slt i8 %14, 58
  br i1 %15, label %24, label %16

16:                                               ; preds = %12, %.lr.ph
  %17 = tail call noundef nonnull align 1 dereferenceable(1) ptr @_ZNKSt7__cxx1112basic_stringIcSt11char_traitsIcESaIcEEixEm(ptr noundef nonnull align 8 dereferenceable(32) %0, i64 noundef %.020) #18
  %18 = load i8, ptr %17, align 1
  %19 = icmp sgt i8 %18, 64
  br i1 %19, label %20, label %.loopexit

20:                                               ; preds = %16
  %21 = tail call noundef nonnull align 1 dereferenceable(1) ptr @_ZNKSt7__cxx1112basic_stringIcSt11char_traitsIcESaIcEEixEm(ptr noundef nonnull align 8 dereferenceable(32) %0, i64 noundef %.020) #18
  %22 = load i8, ptr %21, align 1
  %23 = icmp slt i8 %22, 71
  br i1 %23, label %24, label %.loopexit

24:                                               ; preds = %20, %12
  %.sink24 = phi i64 [ -48, %12 ], [ -55, %20 ]
  %25 = tail call noundef nonnull align 1 dereferenceable(1) ptr @_ZNKSt7__cxx1112basic_stringIcSt11char_traitsIcESaIcEEixEm(ptr noundef nonnull align 8 dereferenceable(32) %0, i64 noundef %.020) #18
  %26 = load i8, ptr %25, align 1
  %27 = sext i8 %26 to i64
  %28 = add nsw i64 %.sink24, %27
  %29 = shl nsw i64 %8, 4
  %30 = add nsw i64 %29, %28
  %31 = add nuw i64 %.020, 1
  %32 = tail call noundef i64 @_ZNKSt7__cxx1112basic_stringIcSt11char_traitsIcESaIcEE6lengthEv(ptr noundef nonnull align 8 dereferenceable(32) %0) #18
  %33 = icmp ult i64 %31, %32
  br i1 %33, label %.lr.ph, label %.loopexit, !llvm.loop !11

34:                                               ; preds = %1
  call void @_ZNSt7__cxx1118basic_stringstreamIcSt11char_traitsIcESaIcEEC1ERKNS_12basic_stringIcS2_S3_EESt13_Ios_Openmode(ptr noundef nonnull align 8 dereferenceable(128) %3, ptr noundef nonnull align 8 dereferenceable(32) %0, i32 noundef 24)
  %35 = invoke noundef nonnull align 8 dereferenceable(16) ptr @_ZNSirsERx(ptr noundef nonnull align 8 dereferenceable(16) %3, ptr noundef nonnull align 8 dereferenceable(8) %2)
          to label %36 unwind label %37

36:                                               ; preds = %34
  call void @_ZNSt7__cxx1118basic_stringstreamIcSt11char_traitsIcESaIcEED1Ev(ptr noundef nonnull align 8 dereferenceable(128) %3) #18
  %.pre = load i64, ptr %2, align 8
  br label %.loopexit

37:                                               ; preds = %34
  %38 = landingpad { ptr, i32 }
          cleanup
  call void @_ZNSt7__cxx1118basic_stringstreamIcSt11char_traitsIcESaIcEED1Ev(ptr noundef nonnull align 8 dereferenceable(128) %3) #18
  resume { ptr, i32 } %38

.loopexit:                                        ; preds = %16, %20, %24, %.preheader, %36
  %39 = phi i64 [ 0, %.preheader ], [ %.pre, %36 ], [ %8, %16 ], [ %8, %20 ], [ %30, %24 ]
  ret i64 %39
}